target datalayout = "e-m:e-p270:32:32-p271:32:32-p272:64:64-i64:64-i128:128-f80:128-n8:16:32:64-S128"
target triple = "x86_64-pc-linux-gnu"

%struct.re_pattern_buffer = type { ptr, i32, i32, i32, i32, i32, i32, i32, i32, i32, i32, i32, i32, i32, ptr, ptr, ptr, ptr, i32, i32, i32, i32, i64, i64, i32, ptr, ptr, [256 x i8], ptr, ptr, i64, i64, i64, ptr }
%struct.re_registers = type { i32, i32, ptr, ptr }
%struct.OnigEncodingTypeST = type { ptr, ptr, i32, i32, ptr, ptr, ptr, ptr, ptr, ptr, ptr, ptr, ptr, ptr, ptr, ptr, ptr, i32, i32 }

; Function Attrs: nounwind sspstrong uwtable
define dso_local i64 @onig_search(ptr noundef %0, ptr noundef %1, ptr noundef %2, ptr noundef %3, ptr noundef %4, ptr noundef %5, i32 noundef %6) #0 {
  %8 = alloca ptr, align 8
  %9 = alloca ptr, align 8
  %10 = alloca ptr, align 8
  %11 = alloca ptr, align 8
  %12 = alloca ptr, align 8
  %13 = alloca ptr, align 8
  %14 = alloca i32, align 4
  store ptr %0, ptr %8, align 8, !tbaa !7
  store ptr %1, ptr %9, align 8, !tbaa !22
  store ptr %2, ptr %10, align 8, !tbaa !22
  store ptr %3, ptr %11, align 8, !tbaa !22
  store ptr %4, ptr %12, align 8, !tbaa !22
  store ptr %5, ptr %13, align 8, !tbaa !24
  store i32 %6, ptr %14, align 4, !tbaa !26
  %15 = load ptr, ptr %8, align 8, !tbaa !7
  %16 = load ptr, ptr %9, align 8, !tbaa !22
  %17 = load ptr, ptr %10, align 8, !tbaa !22
  %18 = load ptr, ptr %11, align 8, !tbaa !22
  %19 = load ptr, ptr %11, align 8, !tbaa !22
  %20 = load ptr, ptr %12, align 8, !tbaa !22
  %21 = load ptr, ptr %13, align 8, !tbaa !24
  %22 = load i32, ptr %14, align 4, !tbaa !26
  %23 = call i64 @onig_search_gpos(ptr noundef %15, ptr noundef %16, ptr noundef %17, ptr noundef %18, ptr noundef %19, ptr noundef %20, ptr noundef %21, i32 noundef %22)
  ret i64 %23
}

; Function Attrs: nounwind sspstrong uwtable
define dso_local i64 @onig_scan(ptr noundef %0, ptr noundef %1, ptr noundef %2, ptr noundef %3, i32 noundef %4, ptr noundef %5, ptr noundef %6) #0 {
  %8 = alloca i64, align 8
  %9 = alloca ptr, align 8
  %10 = alloca ptr, align 8
  %11 = alloca ptr, align 8
  %12 = alloca ptr, align 8
  %13 = alloca i32, align 4
  %14 = alloca ptr, align 8
  %15 = alloca ptr, align 8
  %16 = alloca i64, align 8
  %17 = alloca i64, align 8
  %18 = alloca i32, align 4
  %19 = alloca ptr, align 8
  %20 = alloca i32, align 4
  store ptr %0, ptr %9, align 8, !tbaa !7
  store ptr %1, ptr %10, align 8, !tbaa !22
  store ptr %2, ptr %11, align 8, !tbaa !22
  store ptr %3, ptr %12, align 8, !tbaa !24
  store i32 %4, ptr %13, align 4, !tbaa !26
  store ptr %5, ptr %14, align 8, !tbaa !34
  store ptr %6, ptr %15, align 8, !tbaa !34
  call void @llvm.lifetime.start.p0(i64 8, ptr %16) #12
  call void @llvm.lifetime.start.p0(i64 8, ptr %17) #12
  call void @llvm.lifetime.start.p0(i64 4, ptr %18) #12
  call void @llvm.lifetime.start.p0(i64 8, ptr %19) #12
  store i64 0, ptr %17, align 8, !tbaa !12
  %21 = load ptr, ptr %10, align 8, !tbaa !22
  store ptr %21, ptr %19, align 8, !tbaa !22
  br label %22

22:                                               ; preds = %122, %7
  br label %23

23:                                               ; preds = %22
  %24 = load ptr, ptr %9, align 8, !tbaa !7
  %25 = load ptr, ptr %10, align 8, !tbaa !22
  %26 = load ptr, ptr %11, align 8, !tbaa !22
  %27 = load ptr, ptr %19, align 8, !tbaa !22
  %28 = load ptr, ptr %11, align 8, !tbaa !22
  %29 = load ptr, ptr %12, align 8, !tbaa !24
  %30 = load i32, ptr %13, align 4, !tbaa !26
  %31 = call i64 @onig_search(ptr noundef %24, ptr noundef %25, ptr noundef %26, ptr noundef %27, ptr noundef %28, ptr noundef %29, i32 noundef %30)
  store i64 %31, ptr %16, align 8, !tbaa !12
  %32 = load i64, ptr %16, align 8, !tbaa !12
  %33 = icmp sge i64 %32, 0
  br i1 %33, label %34, label %116

34:                                               ; preds = %23
  %35 = load ptr, ptr %14, align 8, !tbaa !34
  %36 = load i64, ptr %17, align 8, !tbaa !12
  %37 = load i64, ptr %16, align 8, !tbaa !12
  %38 = load ptr, ptr %12, align 8, !tbaa !24
  %39 = load ptr, ptr %15, align 8, !tbaa !34
  %40 = call i32 %35(i64 noundef %36, i64 noundef %37, ptr noundef %38, ptr noundef %39)
  store i32 %40, ptr %18, align 4, !tbaa !26
  %41 = load i64, ptr %17, align 8, !tbaa !12
  %42 = add i64 %41, 1
  store i64 %42, ptr %17, align 8, !tbaa !12
  %43 = load i32, ptr %18, align 4, !tbaa !26
  %44 = icmp ne i32 %43, 0
  br i1 %44, label %45, label %48

45:                                               ; preds = %34
  %46 = load i32, ptr %18, align 4, !tbaa !26
  %47 = sext i32 %46 to i64
  store i64 %47, ptr %8, align 8
  store i32 1, ptr %20, align 4
  br label %125

48:                                               ; preds = %34
  %49 = load ptr, ptr %12, align 8, !tbaa !24
  %50 = getelementptr inbounds nuw %struct.re_registers, ptr %49, i32 0, i32 3
  %51 = load ptr, ptr %50, align 8, !tbaa !29
  %52 = getelementptr i64, ptr %51, i64 0
  %53 = load i64, ptr %52, align 8, !tbaa !12
  %54 = load ptr, ptr %19, align 8, !tbaa !22
  %55 = load ptr, ptr %10, align 8, !tbaa !22
  %56 = ptrtoint ptr %54 to i64
  %57 = ptrtoint ptr %55 to i64
  %58 = sub i64 %56, %57
  %59 = icmp eq i64 %53, %58
  br i1 %59, label %60, label %102

60:                                               ; preds = %48
  %61 = load ptr, ptr %19, align 8, !tbaa !22
  %62 = load ptr, ptr %11, align 8, !tbaa !22
  %63 = icmp uge ptr %61, %62
  br i1 %63, label %64, label %65

64:                                               ; preds = %60
  br label %123

65:                                               ; preds = %60
  %66 = load ptr, ptr %9, align 8, !tbaa !7
  %67 = getelementptr inbounds nuw %struct.re_pattern_buffer, ptr %66, i32 0, i32 15
  %68 = load ptr, ptr %67, align 8, !tbaa !52
  %69 = getelementptr inbounds nuw %struct.OnigEncodingTypeST, ptr %68, i32 0, i32 2
  %70 = load i32, ptr %69, align 8, !tbaa !79
  %71 = load ptr, ptr %9, align 8, !tbaa !7
  %72 = getelementptr inbounds nuw %struct.re_pattern_buffer, ptr %71, i32 0, i32 15
  %73 = load ptr, ptr %72, align 8, !tbaa !52
  %74 = getelementptr inbounds nuw %struct.OnigEncodingTypeST, ptr %73, i32 0, i32 3
  %75 = load i32, ptr %74, align 4, !tbaa !80
  %76 = icmp eq i32 %70, %75
  br i1 %76, label %77, label %90

77:                                               ; preds = %65
  %78 = load ptr, ptr %19, align 8, !tbaa !22
  %79 = load ptr, ptr %11, align 8, !tbaa !22
  %80 = icmp ult ptr %78, %79
  br i1 %80, label %81, label %87

81:                                               ; preds = %77
  %82 = load ptr, ptr %9, align 8, !tbaa !7
  %83 = getelementptr inbounds nuw %struct.re_pattern_buffer, ptr %82, i32 0, i32 15
  %84 = load ptr, ptr %83, align 8, !tbaa !52
  %85 = getelementptr inbounds nuw %struct.OnigEncodingTypeST, ptr %84, i32 0, i32 3
  %86 = load i32, ptr %85, align 4, !tbaa !80
  br label %88

87:                                               ; preds = %77
  br label %88

88:                                               ; preds = %87, %81
  %89 = phi i32 [ %86, %81 ], [ 0, %87 ]
  br label %97

90:                                               ; preds = %65
  %91 = load ptr, ptr %19, align 8, !tbaa !22
  %92 = load ptr, ptr %11, align 8, !tbaa !22
  %93 = load ptr, ptr %9, align 8, !tbaa !7
  %94 = getelementptr inbounds nuw %struct.re_pattern_buffer, ptr %93, i32 0, i32 15
  %95 = load ptr, ptr %94, align 8, !tbaa !52
  %96 = call i32 @onigenc_mbclen(ptr noundef %91, ptr noundef %92, ptr noundef %95)
  br label %97

97:                                               ; preds = %90, %88
  %98 = phi i32 [ %89, %88 ], [ %96, %90 ]
  %99 = load ptr, ptr %19, align 8, !tbaa !22
  %100 = sext i32 %98 to i64
  %101 = getelementptr i8, ptr %99, i64 %100
  store ptr %101, ptr %19, align 8, !tbaa !22
  br label %110

102:                                              ; preds = %48
  %103 = load ptr, ptr %10, align 8, !tbaa !22
  %104 = load ptr, ptr %12, align 8, !tbaa !24
  %105 = getelementptr inbounds nuw %struct.re_registers, ptr %104, i32 0, i32 3
  %106 = load ptr, ptr %105, align 8, !tbaa !29
  %107 = getelementptr i64, ptr %106, i64 0
  %108 = load i64, ptr %107, align 8, !tbaa !12
  %109 = getelementptr i8, ptr %103, i64 %108
  store ptr %109, ptr %19, align 8, !tbaa !22
  br label %110

110:                                              ; preds = %102, %97
  %111 = load ptr, ptr %19, align 8, !tbaa !22
  %112 = load ptr, ptr %11, align 8, !tbaa !22
  %113 = icmp ugt ptr %111, %112
  br i1 %113, label %114, label %115

114:                                              ; preds = %110
  br label %123

115:                                              ; preds = %110
  br label %122

116:                                              ; preds = %23
  %117 = load i64, ptr %16, align 8, !tbaa !12
  %118 = icmp eq i64 %117, -1
  br i1 %118, label %119, label %120

119:                                              ; preds = %116
  br label %123

120:                                              ; preds = %116
  %121 = load i64, ptr %16, align 8, !tbaa !12
  store i64 %121, ptr %8, align 8
  store i32 1, ptr %20, align 4
  br label %125

122:                                              ; preds = %115
  br label %22

123:                                              ; preds = %119, %114, %64
  %124 = load i64, ptr %17, align 8, !tbaa !12
  store i64 %124, ptr %8, align 8
  store i32 1, ptr %20, align 4
  br label %125

125:                                              ; preds = %123, %120, %45
  call void @llvm.lifetime.end.p0(i64 8, ptr %19) #12
  call void @llvm.lifetime.end.p0(i64 4, ptr %18) #12
  call void @llvm.lifetime.end.p0(i64 8, ptr %17) #12
  call void @llvm.lifetime.end.p0(i64 8, ptr %16) #12
  %126 = load i64, ptr %8, align 8
  ret i64 %126
}