; Function Attrs: nounwind sspstrong uwtable
define dso_local i64 @onig_scan(ptr noundef %0, ptr noundef %1, ptr noundef %2, ptr noundef %3, i32 noundef %4, ptr noundef readonly captures(none) %5, ptr noundef %6) local_unnamed_addr #0 {
  %8 = getelementptr inbounds nuw i8, ptr %3, i64 16
  %9 = ptrtoint ptr %1 to i64
  %10 = getelementptr inbounds nuw i8, ptr %0, i64 72
  br label %11

11:                                               ; preds = %41, %7
  %.039 = phi i64 [ 0, %7 ], [ %16, %41 ]
  %.0 = phi ptr [ %1, %7 ], [ %.1, %41 ]
  %12 = tail call i64 @onig_search_gpos(ptr noundef %0, ptr noundef %1, ptr noundef %2, ptr noundef %.0, ptr noundef %.0, ptr noundef %2, ptr noundef %3, i32 noundef %4)
  %13 = icmp sgt i64 %12, -1
  br i1 %13, label %14, label %43

14:                                               ; preds = %11
  %15 = tail call i32 %5(i64 noundef %.039, i64 noundef %12, ptr noundef %3, ptr noundef %6) #21
  %16 = add i64 %.039, 1
  %.not = icmp eq i32 %15, 0
  br i1 %.not, label %19, label %17

17:                                               ; preds = %14
  %18 = sext i32 %15 to i64
  br label %.loopexit

19:                                               ; preds = %14
  %20 = load ptr, ptr %8, align 8, !tbaa !23
  %21 = load i64, ptr %20, align 8, !tbaa !19
  %22 = ptrtoint ptr %.0 to i64
  %23 = sub i64 %22, %9
  %24 = icmp eq i64 %21, %23
  br i1 %24, label %25, label %39

25:                                               ; preds = %19
  %.not47 = icmp ult ptr %.0, %2
  br i1 %.not47, label %26, label %.loopexit

26:                                               ; preds = %25
  %27 = load ptr, ptr %10, align 8, !tbaa !44
  %28 = getelementptr inbounds nuw i8, ptr %27, i64 16
  %29 = load i32, ptr %28, align 8, !tbaa !71
  %30 = getelementptr inbounds nuw i8, ptr %27, i64 20
  %31 = load i32, ptr %30, align 4, !tbaa !72
  %32 = icmp eq i32 %29, %31
  br i1 %32, label %35, label %33

33:                                               ; preds = %26
  %34 = tail call i32 @onigenc_mbclen(ptr noundef %.0, ptr noundef nonnull %2, ptr noundef nonnull %27) #21
  br label %35

35:                                               ; preds = %26, %33
  %36 = phi i32 [ %34, %33 ], [ %29, %26 ]
  %37 = sext i32 %36 to i64
  %38 = getelementptr i8, ptr %.0, i64 %37
  br label %41

39:                                               ; preds = %19
  %40 = getelementptr i8, ptr %1, i64 %21
  br label %41

41:                                               ; preds = %39, %35
  %.1 = phi ptr [ %38, %35 ], [ %40, %39 ]
  %42 = icmp ugt ptr %.1, %2
  br i1 %42, label %.loopexit, label %11

43:                                               ; preds = %11
  %44 = icmp eq i64 %12, -1
  %spec.select48 = select i1 %44, i64 %.039, i64 %12
  br label %.loopexit

.loopexit:                                        ; preds = %25, %41, %43, %17
  %.038 = phi i64 [ %18, %17 ], [ %spec.select48, %43 ], [ %16, %41 ], [ %16, %25 ]
  ret i64 %.038
}